target datalayout = "e-m:e-p270:32:32-p271:32:32-p272:64:64-i64:64-i128:128-f80:128-n8:16:32:64-S128"
target triple = "x86_64-unknown-linux-gnu"

%"class.icu_75::Normalizer2DataBuilder" = type <{ %"class.icu_75::Norms", i32, i32, i32, [20 x i32], [4 x i8], ptr, i32, [4 x i8], %"class.icu_75::UnicodeString", [256 x i8], [4 x i8], [4 x i8] }>
%"class.icu_75::Norms" = type { %"class.icu_75::UnicodeSet", %"class.icu_75::UnicodeSet", ptr, ptr, ptr }
%"class.icu_75::UnicodeSet" = type <{ %"class.icu_75::UnicodeFilter", ptr, i32, i32, i8, [7 x i8], ptr, ptr, i32, [4 x i8], ptr, i32, [4 x i8], ptr, ptr, [25 x i32], [4 x i8] }>
%"class.icu_75::UnicodeFilter" = type { %"class.icu_75::UnicodeFunctor", %"class.icu_75::UnicodeMatcher" }
%"class.icu_75::UnicodeFunctor" = type { %"class.icu_75::UObject" }
%"class.icu_75::UObject" = type { ptr }
%"class.icu_75::UnicodeMatcher" = type { ptr }
%"class.icu_75::UnicodeString" = type { %"class.icu_75::Replaceable", %"union.icu_75::UnicodeString::StackBufferOrFields" }
%"class.icu_75::Replaceable" = type { %"class.icu_75::UObject" }
%"union.icu_75::UnicodeString::StackBufferOrFields" = type { %struct.anon.0, [32 x i8] }
%struct.anon.0 = type { i16, i32, i32, ptr }

@stderr = external global ptr, align 8
@.str = private unnamed_addr constant [73 x i8] c"gennorm2 error: multiple inconsistent Unicode version numbers %s vs. %s\0A\00", align 1

; Function Attrs: mustprogress uwtable
define dso_local void @_ZN6icu_7522Normalizer2DataBuilder17setUnicodeVersionEPKc(ptr noundef nonnull align 8 dereferenceable(860) %this, ptr noundef %v) #1 align 2 {
entry:
  %this.addr = alloca ptr, align 8
  %v.addr = alloca ptr, align 8
  %nullVersion = alloca [4 x i8], align 1
  %version = alloca [4 x i8], align 1
  %buffer = alloca [20 x i8], align 16
  store ptr %this, ptr %this.addr, align 8
  store ptr %v, ptr %v.addr, align 8
  %this1 = load ptr, ptr %this.addr, align 8
  call void @llvm.memset.p0.i64(ptr align 1 %nullVersion, i8 0, i64 4, i1 false)
  %arraydecay = getelementptr inbounds [4 x i8], ptr %version, i64 0, i64 0
  %0 = load ptr, ptr %v.addr, align 8
  call void @u_versionFromString_75(ptr noundef %arraydecay, ptr noundef %0)
  %arraydecay2 = getelementptr inbounds [4 x i8], ptr %version, i64 0, i64 0
  %unicodeVersion = getelementptr inbounds %"class.icu_75::Normalizer2DataBuilder", ptr %this1, i32 0, i32 11
  %arraydecay3 = getelementptr inbounds [4 x i8], ptr %unicodeVersion, i64 0, i64 0
  %call = call i32 @memcmp(ptr noundef %arraydecay2, ptr noundef %arraydecay3, i64 noundef 4) #16
  %cmp = icmp ne i32 0, %call
  br i1 %cmp, label %land.lhs.true, label %if.end

land.lhs.true:                                    ; preds = %entry
  %arraydecay4 = getelementptr inbounds [4 x i8], ptr %nullVersion, i64 0, i64 0
  %unicodeVersion5 = getelementptr inbounds %"class.icu_75::Normalizer2DataBuilder", ptr %this1, i32 0, i32 11
  %arraydecay6 = getelementptr inbounds [4 x i8], ptr %unicodeVersion5, i64 0, i64 0
  %call7 = call i32 @memcmp(ptr noundef %arraydecay4, ptr noundef %arraydecay6, i64 noundef 4) #16
  %cmp8 = icmp ne i32 0, %call7
  br i1 %cmp8, label %if.then, label %if.end

if.then:                                          ; preds = %land.lhs.true
  %unicodeVersion9 = getelementptr inbounds %"class.icu_75::Normalizer2DataBuilder", ptr %this1, i32 0, i32 11
  %arraydecay10 = getelementptr inbounds [4 x i8], ptr %unicodeVersion9, i64 0, i64 0
  %arraydecay11 = getelementptr inbounds [20 x i8], ptr %buffer, i64 0, i64 0
  call void @u_versionToString_75(ptr noundef %arraydecay10, ptr noundef %arraydecay11)
  %1 = load ptr, ptr @stderr, align 8
  %arraydecay12 = getelementptr inbounds [20 x i8], ptr %buffer, i64 0, i64 0
  %2 = load ptr, ptr %v.addr, align 8
  %call13 = call i32 (ptr, ptr, ...) @fprintf(ptr noundef %1, ptr noundef @.str, ptr noundef %arraydecay12, ptr noundef %2)
  call void @exit(i32 noundef 1) #14
  unreachable

if.end:                                           ; preds = %land.lhs.true, %entry
  %unicodeVersion14 = getelementptr inbounds %"class.icu_75::Normalizer2DataBuilder", ptr %this1, i32 0, i32 11
  %arraydecay15 = getelementptr inbounds [4 x i8], ptr %unicodeVersion14, i64 0, i64 0
  %arraydecay16 = getelementptr inbounds [4 x i8], ptr %version, i64 0, i64 0
  call void @llvm.memcpy.p0.p0.i64(ptr align 8 %arraydecay15, ptr align 1 %arraydecay16, i64 4, i1 false)
  ret void
}