; Function Attrs: mustprogress uwtable
define dso_local void @_ZN6icu_7522Normalizer2DataBuilder17setUnicodeVersionEPKc(ptr noundef nonnull align 8 dereferenceable(860) %this, ptr noundef %v) local_unnamed_addr #1 align 2 {
entry:
  %version = alloca [4 x i8], align 4
  %buffer = alloca [20 x i8], align 16
  call void @u_versionFromString_75(ptr noundef nonnull %version, ptr noundef %v)
  %unicodeVersion = getelementptr inbounds i8, ptr %this, i64 856
  %lhsv = load i32, ptr %version, align 4
  %rhsv = load i32, ptr %unicodeVersion, align 8
  %.not = icmp eq i32 %lhsv, %rhsv
  %rhsv4 = load i32, ptr %unicodeVersion, align 8
  %.not5 = icmp eq i32 %rhsv4, 0
  %or.cond = select i1 %.not, i1 true, i1 %.not5
  br i1 %or.cond, label %if.end, label %if.then

if.then:                                          ; preds = %entry
  call void @u_versionToString_75(ptr noundef nonnull %unicodeVersion, ptr noundef nonnull %buffer)
  %0 = load ptr, ptr @stderr, align 8
  %call13 = call i32 (ptr, ptr, ...) @fprintf(ptr noundef %0, ptr noundef nonnull @.str, ptr noundef nonnull %buffer, ptr noundef %v) #21
  call void @exit(i32 noundef 1) #19
  unreachable

if.end:                                           ; preds = %entry
  %1 = load i32, ptr %version, align 4
  store i32 %1, ptr %unicodeVersion, align 8
  ret void
}